target datalayout = "e-m:e-p270:32:32-p271:32:32-p272:64:64-i64:64-i128:128-f80:128-n8:16:32:64-S128"
target triple = "x86_64-unknown-linux-gnu"

%"class.icu_75::UObject" = type { ptr }
%"class.icu_75::DateFormat" = type { %"class.icu_75::Format.base", ptr, ptr, %"class.icu_75::EnumSet", i32 }
%"class.icu_75::Format.base" = type <{ %"class.icu_75::UObject", [157 x i8], [157 x i8] }>
%"class.icu_75::EnumSet" = type { i32 }
%"class.icu_75::GregorianCalendar" = type <{ %"class.icu_75::Calendar.base", [6 x i8], double, i32, [4 x i8], double, i32, i8, i8, [2 x i8] }>
%"class.icu_75::Calendar.base" = type <{ %"class.icu_75::UObject", i8, i8, i8, i8, [24 x i32], [24 x i8], [24 x i32], i32, double, i8, [7 x i8], ptr, i32, i32, i32, i8, [3 x i8], i32, i32, i32, i32, i32, i32, i32, i32, [157 x i8], [157 x i8] }>

@.str = private unnamed_addr constant [10 x i8] c"gregorian\00", align 1

; Function Attrs: mustprogress nounwind uwtable
define internal noundef signext i8 @_ZL9U_SUCCESS10UErrorCode(i32 noundef %code) #0 {
entry:
  %code.addr = alloca i32, align 4
  store i32 %code, ptr %code.addr, align 4
  %0 = load i32, ptr %code.addr, align 4
  %cmp = icmp sle i32 %0, 0
  %conv = zext i1 %cmp to i8
  ret i8 %conv
}

; Function Attrs: mustprogress uwtable
define linkonce_odr void @_ZN6icu_758Calendar7setTimeEdR10UErrorCode(ptr noundef nonnull align 8 dereferenceable(618) %this, double noundef %date, ptr noundef nonnull align 4 dereferenceable(4) %status) #2 comdat align 2 {
entry:
  %this.addr = alloca ptr, align 8
  %date.addr = alloca double, align 8
  %status.addr = alloca ptr, align 8
  store ptr %this, ptr %this.addr, align 8
  store double %date, ptr %date.addr, align 8
  store ptr %status, ptr %status.addr, align 8
  %this1 = load ptr, ptr %this.addr, align 8
  %0 = load double, ptr %date.addr, align 8
  %1 = load ptr, ptr %status.addr, align 8
  call void @_ZN6icu_758Calendar15setTimeInMillisEdR10UErrorCode(ptr noundef nonnull align 8 dereferenceable(618) %this1, double noundef %0, ptr noundef nonnull align 4 dereferenceable(4) %1)
  ret void
}

; Function Attrs: mustprogress uwtable
define noundef nonnull align 8 dereferenceable(64) ptr @_ZNK6icu_7510DateFormat6formatEdRNS_13UnicodeStringERNS_13FieldPositionE(ptr noundef nonnull align 8 dereferenceable(352) %this, double noundef %date, ptr noundef nonnull align 8 dereferenceable(64) %appendTo, ptr noundef nonnull align 8 dereferenceable(20) %fieldPosition) #2 align 2 personality ptr @__gxx_personality_v0 {
entry:
  %this.addr = alloca ptr, align 8
  %date.addr = alloca double, align 8
  %appendTo.addr = alloca ptr, align 8
  %fieldPosition.addr = alloca ptr, align 8
  %ec = alloca i32, align 4
  %calType = alloca ptr, align 8
  %cal = alloca %"class.icu_75::GregorianCalendar", align 8
  %exn.slot = alloca ptr, align 8
  %ehselector.slot = alloca i32, align 4
  %calClone = alloca ptr, align 8
  store ptr %this, ptr %this.addr, align 8
  store double %date, ptr %date.addr, align 8
  store ptr %appendTo, ptr %appendTo.addr, align 8
  store ptr %fieldPosition, ptr %fieldPosition.addr, align 8
  %this1 = load ptr, ptr %this.addr, align 8
  %fCalendar = getelementptr inbounds %"class.icu_75::DateFormat", ptr %this1, i32 0, i32 1
  %0 = load ptr, ptr %fCalendar, align 8
  %cmp = icmp ne ptr %0, null
  br i1 %cmp, label %if.then, label %if.end31

if.then:                                          ; preds = %entry
  store i32 0, ptr %ec, align 4
  %fCalendar2 = getelementptr inbounds %"class.icu_75::DateFormat", ptr %this1, i32 0, i32 1
  %1 = load ptr, ptr %fCalendar2, align 8
  %vtable = load ptr, ptr %1, align 8
  %vfn = getelementptr inbounds ptr, ptr %vtable, i64 23
  %2 = load ptr, ptr %vfn, align 8
  %call = call noundef ptr %2(ptr noundef nonnull align 8 dereferenceable(618) %1)
  store ptr %call, ptr %calType, align 8
  %3 = load ptr, ptr %calType, align 8
  %call3 = call i32 @strcmp(ptr noundef %3, ptr noundef @.str) #9
  %cmp4 = icmp eq i32 %call3, 0
  br i1 %cmp4, label %if.then5, label %if.else

if.then5:                                         ; preds = %if.then
  %fCalendar6 = getelementptr inbounds %"class.icu_75::DateFormat", ptr %this1, i32 0, i32 1
  %4 = load ptr, ptr %fCalendar6, align 8
  call void @_ZN6icu_7517GregorianCalendarC1ERKS0_(ptr noundef nonnull align 8 dereferenceable(654) %cal, ptr noundef nonnull align 8 dereferenceable(654) %4)
  %5 = load double, ptr %date.addr, align 8
  invoke void @_ZN6icu_758Calendar7setTimeEdR10UErrorCode(ptr noundef nonnull align 8 dereferenceable(618) %cal, double noundef %5, ptr noundef nonnull align 4 dereferenceable(4) %ec)
          to label %invoke.cont unwind label %lpad

invoke.cont:                                      ; preds = %if.then5
  %6 = load i32, ptr %ec, align 4
  %call8 = invoke noundef signext i8 @_ZL9U_SUCCESS10UErrorCode(i32 noundef %6)
          to label %invoke.cont7 unwind label %lpad

invoke.cont7:                                     ; preds = %invoke.cont
  %tobool = icmp ne i8 %call8, 0
  br i1 %tobool, label %if.then9, label %if.end

if.then9:                                         ; preds = %invoke.cont7
  %7 = load ptr, ptr %appendTo.addr, align 8
  %8 = load ptr, ptr %fieldPosition.addr, align 8
  %vtable10 = load ptr, ptr %this1, align 8
  %vfn11 = getelementptr inbounds ptr, ptr %vtable10, i64 8
  %9 = load ptr, ptr %vfn11, align 8
  %call13 = invoke noundef nonnull align 8 dereferenceable(64) ptr %9(ptr noundef nonnull align 8 dereferenceable(352) %this1, ptr noundef nonnull align 8 dereferenceable(618) %cal, ptr noundef nonnull align 8 dereferenceable(64) %7, ptr noundef nonnull align 8 dereferenceable(20) %8)
          to label %invoke.cont12 unwind label %lpad

invoke.cont12:                                    ; preds = %if.then9
  br label %if.end

lpad:                                             ; preds = %if.then9, %invoke.cont, %if.then5
  %10 = landingpad { ptr, i32 }
          cleanup
  %11 = extractvalue { ptr, i32 } %10, 0
  store ptr %11, ptr %exn.slot, align 8
  %12 = extractvalue { ptr, i32 } %10, 1
  store i32 %12, ptr %ehselector.slot, align 4
  call void @_ZN6icu_7517GregorianCalendarD1Ev(ptr noundef nonnull align 8 dereferenceable(654) %cal) #7
  br label %eh.resume

if.end:                                           ; preds = %invoke.cont12, %invoke.cont7
  call void @_ZN6icu_7517GregorianCalendarD1Ev(ptr noundef nonnull align 8 dereferenceable(654) %cal) #7
  br label %if.end30

if.else:                                          ; preds = %if.then
  %fCalendar14 = getelementptr inbounds %"class.icu_75::DateFormat", ptr %this1, i32 0, i32 1
  %13 = load ptr, ptr %fCalendar14, align 8
  %vtable15 = load ptr, ptr %13, align 8
  %vfn16 = getelementptr inbounds ptr, ptr %vtable15, i64 3
  %14 = load ptr, ptr %vfn16, align 8
  %call17 = call noundef ptr %14(ptr noundef nonnull align 8 dereferenceable(618) %13)
  store ptr %call17, ptr %calClone, align 8
  %15 = load ptr, ptr %calClone, align 8
  %cmp18 = icmp ne ptr %15, null
  br i1 %cmp18, label %if.then19, label %if.end29

if.then19:                                        ; preds = %if.else
  %16 = load ptr, ptr %calClone, align 8
  %17 = load double, ptr %date.addr, align 8
  call void @_ZN6icu_758Calendar7setTimeEdR10UErrorCode(ptr noundef nonnull align 8 dereferenceable(618) %16, double noundef %17, ptr noundef nonnull align 4 dereferenceable(4) %ec)
  %18 = load i32, ptr %ec, align 4
  %call20 = call noundef signext i8 @_ZL9U_SUCCESS10UErrorCode(i32 noundef %18)
  %tobool21 = icmp ne i8 %call20, 0
  br i1 %tobool21, label %if.then22, label %if.end26

if.then22:                                        ; preds = %if.then19
  %19 = load ptr, ptr %calClone, align 8
  %20 = load ptr, ptr %appendTo.addr, align 8
  %21 = load ptr, ptr %fieldPosition.addr, align 8
  %vtable23 = load ptr, ptr %this1, align 8
  %vfn24 = getelementptr inbounds ptr, ptr %vtable23, i64 8
  %22 = load ptr, ptr %vfn24, align 8
  %call25 = call noundef nonnull align 8 dereferenceable(64) ptr %22(ptr noundef nonnull align 8 dereferenceable(352) %this1, ptr noundef nonnull align 8 dereferenceable(618) %19, ptr noundef nonnull align 8 dereferenceable(64) %20, ptr noundef nonnull align 8 dereferenceable(20) %21)
  br label %if.end26

if.end26:                                         ; preds = %if.then22, %if.then19
  %23 = load ptr, ptr %calClone, align 8
  %isnull = icmp eq ptr %23, null
  br i1 %isnull, label %delete.end, label %delete.notnull

delete.notnull:                                   ; preds = %if.end26
  %vtable27 = load ptr, ptr %23, align 8
  %vfn28 = getelementptr inbounds ptr, ptr %vtable27, i64 1
  %24 = load ptr, ptr %vfn28, align 8
  call void %24(ptr noundef nonnull align 8 dereferenceable(618) %23) #7
  br label %delete.end

delete.end:                                       ; preds = %delete.notnull, %if.end26
  br label %if.end29

if.end29:                                         ; preds = %delete.end, %if.else
  br label %if.end30

if.end30:                                         ; preds = %if.end29, %if.end
  br label %if.end31

if.end31:                                         ; preds = %if.end30, %entry
  %25 = load ptr, ptr %appendTo.addr, align 8
  ret ptr %25

eh.resume:                                        ; preds = %lpad
  %exn = load ptr, ptr %exn.slot, align 8
  %sel = load i32, ptr %ehselector.slot, align 4
  %lpad.val = insertvalue { ptr, i32 } poison, ptr %exn, 0
  %lpad.val32 = insertvalue { ptr, i32 } %lpad.val, i32 %sel, 1
  resume { ptr, i32 } %lpad.val32
}